; Function Attrs: nounwind uwtable
define ptr @l___private_Lean_Elab_Tactic_Conv_Congr_0__Lean_Elab_Tactic_Conv_mkCongrThm___lambda__2___boxed(ptr noundef %0, ptr noundef %1, ptr noundef %2, ptr noundef %3, ptr noundef %4, ptr noundef %5, ptr noundef %6, ptr noundef %7, ptr noundef %8, ptr noundef %9, ptr noundef %10, ptr noundef %11, ptr noundef %12, ptr noundef %13, ptr noundef %14, ptr noundef %15) local_unnamed_addr #1 {
  %17 = ptrtoint ptr %4 to i64
  %18 = lshr i64 %17, 1
  %19 = trunc i64 %18 to i8
  %20 = and i64 %17, 1
  %.not = icmp eq i64 %20, 0
  br i1 %.not, label %21, label %lean_dec.exit24

21:                                               ; preds = %16
  %22 = load i32, ptr %4, align 4, !tbaa !6
  %23 = icmp sgt i32 %22, 1
  br i1 %23, label %24, label %26, !prof !5

24:                                               ; preds = %21
  %25 = add nsw i32 %22, -1
  store i32 %25, ptr %4, align 4, !tbaa !6
  br label %lean_dec.exit24

26:                                               ; preds = %21
  %.not.i = icmp eq i32 %22, 0
  br i1 %.not.i, label %lean_dec.exit24, label %27

27:                                               ; preds = %26
  tail call void @lean_dec_ref_cold(ptr noundef nonnull %4) #4
  br label %lean_dec.exit24

lean_dec.exit24:                                  ; preds = %27, %26, %24, %16
  %28 = ptrtoint ptr %5 to i64
  %29 = lshr i64 %28, 1
  %30 = trunc i64 %29 to i8
  %31 = and i64 %28, 1
  %.not31 = icmp eq i64 %31, 0
  br i1 %.not31, label %32, label %lean_dec.exit23

32:                                               ; preds = %lean_dec.exit24
  %33 = load i32, ptr %5, align 4, !tbaa !6
  %34 = icmp sgt i32 %33, 1
  br i1 %34, label %35, label %37, !prof !5

35:                                               ; preds = %32
  %36 = add nsw i32 %33, -1
  store i32 %36, ptr %5, align 4, !tbaa !6
  br label %lean_dec.exit23

37:                                               ; preds = %32
  %.not.i25 = icmp eq i32 %33, 0
  br i1 %.not.i25, label %lean_dec.exit23, label %38

38:                                               ; preds = %37
  tail call void @lean_dec_ref_cold(ptr noundef nonnull %5) #4
  br label %lean_dec.exit23

lean_dec.exit23:                                  ; preds = %38, %37, %35, %lean_dec.exit24
  %39 = tail call ptr @l___private_Lean_Elab_Tactic_Conv_Congr_0__Lean_Elab_Tactic_Conv_mkCongrThm___lambda__2(ptr noundef %0, ptr noundef %1, ptr noundef %2, ptr noundef %3, i8 noundef zeroext %19, i8 noundef zeroext %30, ptr noundef %6, ptr noundef %7, ptr noundef %8, ptr noundef %9, ptr poison, ptr noundef %11, ptr noundef %12, ptr noundef %13, ptr noundef %14, ptr noundef %15)
  %40 = ptrtoint ptr %10 to i64
  %41 = and i64 %40, 1
  %.not32 = icmp eq i64 %41, 0
  br i1 %.not32, label %42, label %lean_dec.exit22

42:                                               ; preds = %lean_dec.exit23
  %43 = load i32, ptr %10, align 4, !tbaa !6
  %44 = icmp sgt i32 %43, 1
  br i1 %44, label %45, label %47, !prof !5

45:                                               ; preds = %42
  %46 = add nsw i32 %43, -1
  store i32 %46, ptr %10, align 4, !tbaa !6
  br label %lean_dec.exit22

47:                                               ; preds = %42
  %.not.i27 = icmp eq i32 %43, 0
  br i1 %.not.i27, label %lean_dec.exit22, label %48

48:                                               ; preds = %47
  tail call void @lean_dec_ref_cold(ptr noundef nonnull %10) #4
  br label %lean_dec.exit22

lean_dec.exit22:                                  ; preds = %48, %47, %45, %lean_dec.exit23
  %49 = ptrtoint ptr %1 to i64
  %50 = and i64 %49, 1
  %.not33 = icmp eq i64 %50, 0
  br i1 %.not33, label %51, label %lean_dec.exit

51:                                               ; preds = %lean_dec.exit22
  %52 = load i32, ptr %1, align 4, !tbaa !6
  %53 = icmp sgt i32 %52, 1
  br i1 %53, label %54, label %56, !prof !5

54:                                               ; preds = %51
  %55 = add nsw i32 %52, -1
  store i32 %55, ptr %1, align 4, !tbaa !6
  br label %lean_dec.exit

56:                                               ; preds = %51
  %.not.i29 = icmp eq i32 %52, 0
  br i1 %.not.i29, label %lean_dec.exit, label %57

57:                                               ; preds = %56
  tail call void @lean_dec_ref_cold(ptr noundef nonnull %1) #4
  br label %lean_dec.exit

lean_dec.exit:                                    ; preds = %57, %56, %54, %lean_dec.exit22
  ret ptr %39
}